; Function Attrs: nounwind uwtable
define ptr @php_random_default_status() local_unnamed_addr #0 {
  %1 = load ptr, ptr getelementptr inbounds (%struct._zend_random_globals, ptr @random_globals, i64 0, i32 2), align 8
  %2 = load i8, ptr getelementptr inbounds (%struct._zend_random_globals, ptr @random_globals, i64 0, i32 3), align 8
  %3 = and i8 %2, 1
  %.not = icmp eq i8 %3, 0
  br i1 %.not, label %4, label %5

4:                                                ; preds = %0
  tail call void @php_random_mt19937_seed_default(ptr noundef %1) #13
  store i8 1, ptr getelementptr inbounds (%struct._zend_random_globals, ptr @random_globals, i64 0, i32 3), align 8
  br label %5

5:                                                ; preds = %4, %0
  ret ptr %1
}